Certificate:
    Data:
        Version: 3 (0x2)
        Serial Number:
            d7:2e:39:77:d8:8f:c4:fc:22:cd:0e:68:4b:8c:0b:50
        Signature Algorithm: sha256WithRSAEncryption
        Issuer: CN=Easy-RSA CA
        Validity
            Not Before: Feb 20 14:02:54 2023 GMT
            Not After : May 25 14:02:54 2025 GMT
        Subject: C=FR, ST=NORD, L=LILLE, O=GastonMedilab, OU=Community, CN=ulab.gaston.medilab.fr
        Subject Public Key Info:
            Public Key Algorithm: rsaEncryption
                RSA Public-Key: (2048 bit)
                Modulus:
                    00:bf:9c:2d:6c:9e:91:e8:e0:99:c9:c4:af:a7:cc:
                    ee:2c:14:1f:c9:aa:aa:ac:61:bd:d1:c4:4b:19:97:
                    e1:e6:a3:a3:50:2b:ae:16:b5:48:2e:da:e0:06:71:
                    3a:99:22:67:86:84:8b:d0:5a:f6:49:6e:d6:b0:d2:
                    04:91:5e:09:58:c3:cf:b5:fb:73:e1:f1:a0:bf:d6:
                    b9:5c:d5:2b:c8:94:25:77:68:d0:e1:d9:35:e1:35:
                    fe:f5:94:53:57:70:25:03:28:1b:d1:ef:8b:d6:86:
                    8d:33:16:29:aa:33:78:74:16:8c:b0:12:b5:c0:50:
                    cd:45:80:4a:af:83:5d:5f:26:8c:d7:e5:57:c9:03:
                    f5:f4:d8:7e:11:07:73:68:7d:c2:9b:5d:b3:d1:83:
                    b2:68:67:99:ea:fa:96:43:a1:cc:fe:d3:59:1e:c7:
                    12:4a:30:8a:d5:92:55:0e:1c:cc:29:78:2c:76:dc:
                    ee:72:24:41:4f:b1:55:fd:e9:2a:0c:f8:af:f1:0a:
                    86:b3:b7:cd:4a:af:43:81:69:cd:e8:52:c2:7e:a1:
                    fd:b6:2d:39:d7:5e:f7:40:cf:77:04:20:c8:24:96:
                    6a:07:50:18:9d:2f:16:dc:85:80:4f:45:13:b1:de:
                    ce:a3:ee:c7:74:f6:d9:01:a3:37:b1:b6:25:d9:b7:
                    04:6f
                Exponent: 65537 (0x10001)
        X509v3 extensions:
            X509v3 Basic Constraints: 
                CA:FALSE
            X509v3 Subject Key Identifier: 
                3F:CE:1D:FD:95:2F:3C:CC:8E:CE:60:55:F7:DA:B6:2F:EE:E1:77:4D
            X509v3 Authority Key Identifier: 
                keyid:C3:2A:29:67:BB:FA:18:2E:3E:3E:B4:C7:F7:B5:CC:9C:4E:7B:44:86
                DirName:/CN=Easy-RSA CA
                serial:59:4B:AA:A0:78:BB:59:28:63:68:D9:33:FF:6E:57:B3:C9:70:1E:4F

            X509v3 Extended Key Usage: 
                TLS Web Server Authentication
            X509v3 Key Usage: 
                Digital Signature, Key Encipherment
            X509v3 Subject Alternative Name: 
                DNS:ulab.gaston.medilab.fr
    Signature Algorithm: sha256WithRSAEncryption
         45:57:45:01:81:e4:24:97:3e:73:53:03:ce:f4:13:f0:45:f3:
         b7:bc:c4:29:82:4b:07:54:d7:32:3b:49:c1:fb:2a:30:b2:9c:
         1f:93:d5:26:81:2e:d8:a5:a1:e8:f2:15:fa:44:2c:49:e5:14:
         87:69:3f:97:bc:e7:66:7f:50:31:4c:47:25:9e:6e:22:e4:28:
         e3:56:6c:39:76:6d:40:ee:60:ca:0b:dc:fd:ba:65:20:05:26:
         9c:b1:10:0e:3e:99:af:13:31:a5:42:7f:db:b8:76:39:79:3e:
         fc:4c:cb:f7:29:97:5f:42:0a:33:0c:96:4c:50:6a:95:9d:3e:
         03:f3:42:fb:02:56:23:26:94:bd:b2:01:26:8d:b5:66:fd:18:
         a4:8c:22:0b:66:da:05:a0:33:4e:d6:a3:5c:1e:99:36:87:e8:
         44:77:f8:b9:4f:db:ec:cf:0c:fb:b4:47:a5:32:cb:48:a2:8c:
         05:8c:61:c2:e4:56:ed:fa:be:f1:c9:c4:36:25:77:f0:84:04:
         a6:22:4b:60:7a:df:a3:9c:ae:d8:01:74:6f:0b:af:5c:e6:3f:
         98:e2:87:71:20:61:b9:ab:5d:bf:51:1c:ff:cd:bd:b0:5c:d9:
         57:52:1f:43:38:b7:6b:40:fe:d4:91:c1:cd:48:d6:69:f1:f6:
         8d:2a:95:dc
-----BEGIN CERTIFICATE-----
MIID4DCCAsigAwIBAgIRANcuOXfYj8T8Is0OaEuMC1AwDQYJKoZIhvcNAQELBQAw
FjEUMBIGA1UEAwwLRWFzeS1SU0EgQ0EwHhcNMjMwMjIwMTQwMjU0WhcNMjUwNTI1
MTQwMjU0WjB5MQswCQYDVQQGEwJGUjENMAsGA1UECAwETk9SRDEOMAwGA1UEBwwF
TElMTEUxFjAUBgNVBAoMDUdhc3Rvbk1lZGlsYWIxEjAQBgNVBAsMCUNvbW11bml0
eTEfMB0GA1UEAwwWdWxhYi5nYXN0b24ubWVkaWxhYi5mcjCCASIwDQYJKoZIhvcN
AQEBBQADggEPADCCAQoCggEBAL+cLWyekejgmcnEr6fM7iwUH8mqqqxhvdHESxmX
4eajo1Arrha1SC7a4AZxOpkiZ4aEi9Ba9klu1rDSBJFeCVjDz7X7c+HxoL/WuVzV
K8iUJXdo0OHZNeE1/vWUU1dwJQMoG9Hvi9aGjTMWKaozeHQWjLAStcBQzUWASq+D
XV8mjNflV8kD9fTYfhEHc2h9wptds9GDsmhnmer6lkOhzP7TWR7HEkowitWSVQ4c
zCl4LHbc7nIkQU+xVf3pKgz4r/EKhrO3zUqvQ4FpzehSwn6h/bYtOdde90DPdwQg
yCSWagdQGJ0vFtyFgE9FE7HezqPux3T22QGjN7G2Jdm3BG8CAwEAAaOBxTCBwjAJ
BgNVHRMEAjAAMB0GA1UdDgQWBBQ/zh39lS88zI7OYFX32rYv7uF3TTBRBgNVHSME
SjBIgBTDKilnu/oYLj4+tMf3tcycTntEhqEapBgwFjEUMBIGA1UEAwwLRWFzeS1S
U0EgQ0GCFFlLqqB4u1koY2jZM/9uV7PJcB5PMBMGA1UdJQQMMAoGCCsGAQUFBwMB
MAsGA1UdDwQEAwIFoDAhBgNVHREEGjAYghZ1bGFiLmdhc3Rvbi5tZWRpbGFiLmZy
MA0GCSqGSIb3DQEBCwUAA4IBAQBFV0UBgeQklz5zUwPO9BPwRfO3vMQpgksHVNcy
O0nB+yowspwfk9UmgS7YpaHo8hX6RCxJ5RSHaT+XvOdmf1AxTEclnm4i5CjjVmw5
dm1A7mDKC9z9umUgBSacsRAOPpmvEzGlQn/buHY5eT78TMv3KZdfQgozDJZMUGqV
nT4D80L7AlYjJpS9sgEmjbVm/RikjCILZtoFoDNO1qNcHpk2h+hEd/i5T9vszwz7
tEelMstIoowFjGHC5Fbt+r7xycQ2JXfwhASmIktget+jnK7YAXRvC69c5j+Y4odx
IGG5q12/URz/zb2wXNlXUh9DOLdrQP7UkcHNSNZp8faNKpXc
-----END CERTIFICATE-----
